; Function Attrs: mustprogress uwtable
define noundef zeroext i1 @_ZN3zmq5req_t8xhas_outEv(ptr noundef nonnull align 8 dereferenceable(1960) %this) unnamed_addr #0 align 2 {
entry:
  %_receiving_reply = getelementptr inbounds i8, ptr %this, i64 1929
  %0 = load i8, ptr %_receiving_reply, align 1
  %1 = and i8 %0, 1
  %tobool.not = icmp eq i8 %1, 0
  br i1 %tobool.not, label %if.end, label %land.lhs.true

land.lhs.true:                                    ; preds = %entry
  %_strict = getelementptr inbounds i8, ptr %this, i64 1952
  %2 = load i8, ptr %_strict, align 8
  %3 = and i8 %2, 1
  %tobool2.not = icmp eq i8 %3, 0
  br i1 %tobool2.not, label %if.end, label %return

if.end:                                           ; preds = %land.lhs.true, %entry
  %call = tail call noundef zeroext i1 @_ZN3zmq8dealer_t8xhas_outEv(ptr noundef nonnull align 8 dereferenceable(1929) %this)
  br label %return

return:                                           ; preds = %land.lhs.true, %if.end
  %retval.0 = phi i1 [ %call, %if.end ], [ false, %land.lhs.true ]
  ret i1 %retval.0
}